(dp1
S'output'
p2
S"<type 'exceptions.IndentationError'> expected an indented block (controllers/sign.py, line 10)"
p3
sS'layer'
p4
S'F:\\Python27\\Tools\\web2py\\applications\\ss\\controllers/sign.py'
p5
sS'code'
p6
S'# -*- coding: utf-8 -*-\n# try something like\ndef index(): return dict(message="hello from sign.py")\n\ndef sign():\n\timport time\n\ttoday=time.strftime("%Y-%m-%d", time.localtime())\n\tweek=time.strftime("%w", time.localtime())\n\tif week==6 or week==7:\n\treturn dict(time=today,warning=\'\xe4\xbb\x8a\xe5\xa4\xa9\xe6\x98\xaf\xe5\x91\xa8\xe6\x9c\xab,\xe5\x8a\xb3\xe8\xb5\x84\xe4\xbb\x8a\xe5\xa4\xa9\xe4\xb8\x8d\xe4\xb8\x8a\xe7\x8f\xad,\xe6\x87\x82\xef\xbc\x9f\')\t\n\tif not session.signin:\n\t\tsession.signin=dict()\n\t\tfor row in db().select(db.member_.ALL):\n\t\t\tsession.signin[row.name]=\'\xe6\x9c\xaa\xe5\xae\x8c\xe6\x88\x90\'\n\tsign_count = db(db.signin.today==today).count()\n\tmember_count=db(db.member_.id>0).count()\n\tif  sign_count==member_count:\n\t\treturn dict(time=today,warning=\'\xe4\xbb\x8a\xe5\xa4\xa9\xe7\x9a\x84\xe7\xad\xbe\xe5\x88\xb0\xe5\xb7\xa5\xe4\xbd\x9c\xe5\xb7\xb2\xe7\xbb\x8f\xe5\x9c\x86\xe6\xbb\xa1\xe5\xae\x8c\xe6\x88\x90~\',signin=session.signin)\n\telse:\n\t\tform = SQLFORM.factory(\n\t        Field(\'member\',label=\'\xe5\xa7\x93\xe5\x90\x8d\',requires=IS_IN_DB(db,db.member_.id,\'%(name)s\')),\n\t        Field(\'isComing\',\'boolean\',label=\'\xe5\x88\xb0\xe4\xba\x86\xe5\x90\x97\',),\n\t        Field(\'comingTime\',\'time\',label=\'\xe5\x88\xb0\xe8\xbe\xbe\xe6\x97\xb6\xe9\x97\xb4\'),\n\t        #Field(\'today\',\'date\',label=\'\xe4\xbb\x8a\xe5\xa4\xa9\'),\n\t\t\tField(\'absentReason\',\'text\',label=\'\xe7\xbc\xba\xe5\xb8\xad\xe5\x8e\x9f\xe5\x9b\xa0\',default=\'\xe6\x97\xa0\')).process()\n\t\tif form.accepted:\n\t\t\tcheck = db((db.signin.mem_id == form.vars.member)&(db.signin.today==today)).select().first()\n\t\t\tname_=db.member_(form.vars.member).name\n\t\t\tif check:\n\t\t\t\tresponse.flash = name_+\'\xe7\xad\xbe\xe5\x88\xb0\xe6\x83\x85\xe5\x86\xb5\xe4\xb9\x8b\xe5\x89\x8d\xe5\xb7\xb2\xe7\xbb\x8f\xe8\xae\xb0\xe5\xbd\x95\xe4\xba\x86\xef\xbc\x8c\xe4\xb8\x8d\xe8\xa6\x81\xe9\x87\x8d\xe5\xa4\x8d\xe6\x8f\x90\xe4\xba\xa4\'#\xe8\xbf\x99\xe5\x8f\xa5\xe6\x8a\x8a\xe4\xbc\xa0\xe5\x85\xa5\xe7\x9a\x84id\xe5\x9c\xa8\xe6\x88\x90\xe5\x91\x98\xe8\xa1\xa8\xe9\x87\x8c\xe9\x9d\xa2\xe7\x9a\x84\xe5\x90\x8d\xe5\xad\x97\xe8\xaf\xbb\xe5\x8f\x96\xe5\x87\xba\xe6\x9d\xa5\n\t\t\telse:\n\t\t\t\tdb.signin.insert(mem_id=form.vars.member,\n                               isComing=form.vars.isComing,\n                               comingTime=form.vars.comingTime,\n                               today=today,\n                               absentReason=form.vars.absentReason\n                               )\n\t\t\t\tsession.signin[name_]=\'\xe5\xb7\xb2\xe5\xae\x8c\xe6\x88\x90\'\n\t\t\t\tresponse.flash = \'\xe6\xb7\xbb\xe5\x8a\xa0\xe6\x88\x90\xe5\x8a\x9f\'\n\t\treturn dict(time=today,form=form,signin=session.signin)\n\ndef commit():\n\trows = db(db.signin.today==request.vars.time).select()\n\tif rows:\n\t\treturn \'\xe4\xbb\x8a\xe5\xa4\xa9\xe7\x9a\x84\xe7\xad\xbe\xe5\x88\xb0\xe6\x83\x85\xe5\x86\xb5\xe5\xb7\xb2\xe7\xbb\x8f\xe6\x8f\x90\xe4\xba\xa4\xe8\xbf\x87\xe4\xba\x86\'\n\telse:\n\t\ttry:\n\t\t\tif request.vars.status_wu==\'1\':\n\t\t\t\tdb.signin.insert(name=request.vars.wu,isComing=request.vars.status_wu,comingTime=\'\',today=request.vars.time,absentReason=request.vars.abs_wu)\n\t\t\telse:\n\t\t\t\tdb.signin.insert(name=request.vars.wu,isComing=request.vars.status_wu,comingTime=request.vars.time_wu,today=request.vars.time,absentReason=\'\')\n\t\t\tif request.vars.status_luo==\'1\':\n\t\t\t\tdb.signin.insert(name=request.vars.luo,isComing=request.vars.status_luo,comingTime=\'\',today=request.vars.time,absentReason=request.vars.abs_luo)\n\t\t\telse:\n\t\t\t\tdb.signin.insert(name=request.vars.luo,isComing=request.vars.status_luo,comingTime=request.vars.time_luo,today=request.vars.time,absentReason=\'\')\n\t\t\tif request.vars.status_liu==\'1\':\n\t\t\t\tdb.signin.insert(name=request.vars.liu,isComing=request.vars.status_liu,comingTime=\'\',today=request.vars.time,absentReason=request.vars.abs_liu)\n\t\t\telse:\n\t\t\t\tdb.signin.insert(name=request.vars.liu,isComing=request.vars.status_liu,comingTime=request.vars.time_liu,today=request.vars.time,absentReason=\'\')\n\t\t\tif request.vars.status_yao==\'1\':\n\t\t\t\tdb.signin.insert(name=request.vars.yao,isComing=request.vars.status_yao,comingTime=\'\',today=request.vars.time,absentReason=request.vars.abs_yao)\n\t\t\telse:\n\t\t\t\tdb.signin.insert(name=request.vars.yao,isComing=request.vars.status_yao,comingTime=request.vars.time_yao,today=request.vars.time,absentReason=\'\')\n\t\t\tif request.vars.status_long1==\'1\':\n\t\t\t\tdb.signin.insert(name=request.vars.long,isComing=request.vars.status_long1,comingTime=\'\',today=request.vars.time,absentReason=request.vars.abs_long)\n\t\t\telse:\n\t\t\t\tdb.signin.insert(name=request.vars.long,isComing=request.vars.status_long1,comingTime=request.vars.time_long,today=request.vars.time,absentReason=\'\')\n\t\t\tif request.vars.status_xue==\'1\':\n\t\t\t\tdb.signin.insert(name=request.vars.xue,isComing=request.vars.status_xue,comingTime=\'\',today=request.vars.time,absentReason=request.vars.abs_xue)\n\t\t\telse:\n\t\t\t\tdb.signin.insert(name=request.vars.xue,isComing=request.vars.status_xue,comingTime=request.vars.time_xue,today=request.vars.time,absentReason=\'\')\n\t\t\treturn \'\xe8\xae\xb0\xe5\xbd\x95\xe6\x88\x90\xe5\x8a\x9f\'\t\n\t\texcept:\t\t\t\t\n\t\t\treturn \'\xe8\xae\xb0\xe5\xbd\x95\xe5\xa4\xb1\xe8\xb4\xa5\'\t\t\n\ndef show():\n\treturn  dict(link=\'sign.html\')\ndef show_():\n\ttoday=request.vars.today\n\trows = db(db.signin.today==today).select()\n\tif not rows:\n\t\treturn \'<span style="font-size:20px;color:red">"\'+today+\'"\'+\'\xe6\xa0\xbc\xe5\xbc\x8f\xe4\xb8\x8d\xe6\xad\xa3\xe7\xa1\xae,\xe6\x88\x96\xe8\x80\x85\xe8\xbf\x99\xe5\xa4\xa9\xe6\x98\xaf\xe5\x91\xa8\xe6\x9c\xab\xe7\xa5\x9e\xe9\xa9\xac\xe7\x9a\x84</span>\'\n\tstr2=(\'<table border="1" width="500" height="400"><tr ><td colspan="4"><span style="font-size:25px;font-weight:bold" >\'\n\t\t+today+\'\xe7\x9a\x84\xe7\xad\xbe\xe5\x88\xb0\xe6\x83\x85\xe5\x86\xb5\'\n\t\t+\'</span></td></tr><tr><td style="font-size:20px;font-weight:bold">\xe6\x88\x90\xe5\x91\x98\xe5\x90\x8d</td><td style="font-size:20px;font-weight:bold">\'\n\t\t\'\xe5\x88\xb0\xe4\xba\x86\xe5\x90\x97</td><td style="font-size:20px;font-weight:bold">\xe5\x88\xb0\xe8\xbe\xbe\xe6\x97\xb6\xe9\x97\xb4</td><td style="font-size:20px;font-weight:bold">\xe7\xbc\xba\xe5\xb8\xad\xe5\x8e\x9f\xe5\x9b\xa0</td</tr>\')\n\tfor row in rows:\n\t\tstr2+=\'<tr>\'\n\t\tstr2+=\'<td>\'+row.name+\'</td>\'\n\t\tif row.isComing==\'0\':\n\t\t\tstr1=\'\xe6\x9d\xa5\xe4\xba\x86\'\n\t\telse:\n\t\t\tstr1=\'\xe6\xb2\xa1\xe6\x9d\xa5\'\n\t\tstr2+=\'<td>\'+str1+\'</td>\'\t\n\t\tstr2+=\'<td>\'+row.comingTime+\'</td>\'\n\t\tstr2+=\'<td>\'+row.absentReason+\'</td></tr>\'\n\treturn \tstr2\t\ndef ajax():\n\treturn dict(message="hello from sign.py")\n#def commit_sign():\n\nresponse._vars=response._caller(sign)\n'
p7
sS'snapshot'
p8
(dp9
S'exception'
p10
(dp11
S'__getslice__'
p12
S"<method-wrapper '__getslice__' of exceptions.IndentationError object>"
p13
sS'text'
p14
S'"\\treturn dict(time=today,warning=\'\\xe4\\xbb\\x8a\\xe5\\xa4\\xa9\\xe6\\x98\\xaf\\xe5\\x91\\xa8\\xe6\\x9c\\xab,\\xe5\\x8a\\xb3\\xe8\\xb5\\x84\\xe4\\xbb\\x8a\\xe5\\xa4\\xa9\\xe4\\xb8\\x8d\\xe4\\xb8\\x8a\\xe7\\x8f\\xad,\\xe6\\x87\\x82\\xef\\xbc\\x9f\')\\t\\n"'
p15
sS'__str__'
p16
S"<method-wrapper '__str__' of exceptions.IndentationError object>"
p17
sS'__reduce__'
p18
S'<built-in method __reduce__ of exceptions.IndentationError object>'
p19
sS'__dict__'
p20
S'{}'
p21
sS'__sizeof__'
p22
S'<built-in method __sizeof__ of exceptions.IndentationError object>'
p23
sS'__init__'
p24
S"<method-wrapper '__init__' of exceptions.IndentationError object>"
p25
sS'__setattr__'
p26
S"<method-wrapper '__setattr__' of exceptions.IndentationError object>"
p27
sS'__reduce_ex__'
p28
S'<built-in method __reduce_ex__ of exceptions.IndentationError object>'
p29
sS'__new__'
p30
S'<built-in method __new__ of type object>'
p31
sS'__format__'
p32
S'<built-in method __format__ of exceptions.IndentationError object>'
p33
sS'__class__'
p34
S"<type 'exceptions.IndentationError'>"
p35
sS'filename'
p36
S"r'F:\\Python27\\Tools\\web2py\\applications\\ss\\controllers/sign.py'"
p37
sS'lineno'
p38
S'10'
p39
sS'msg'
p40
S"'expected an indented block'"
p41
sS'__doc__'
p42
S"'Improper indentation.'"
p43
sS'__getitem__'
p44
S"<method-wrapper '__getitem__' of exceptions.IndentationError object>"
p45
sS'__setstate__'
p46
S'<built-in method __setstate__ of exceptions.IndentationError object>'
p47
sS'__getattribute__'
p48
S"<method-wrapper '__getattribute__' of exceptions.IndentationError object>"
p49
sS'print_file_and_line'
p50
S'None'
p51
sS'args'
p52
S'(\'expected an indented block\', (r\'F:\\Python27\\Tools\\web2py\\applications\\ss\\controllers/sign.py\', 10, 7, "\\treturn dict(time=today,warning=\'\\xe4\\xbb\\x8a\\xe5\\xa4\\xa9\\xe6\\x98\\xaf\\xe5\\x91\\xa8\\xe6\\x9c\\xab,\\xe5\\x8a\\xb3\\xe8\\xb5\\x84\\xe4\\xbb\\x8a\\xe5\\xa4\\xa9\\xe4\\xb8\\x8d\\xe4\\xb8\\x8a\\xe7\\x8f\\xad,\\xe6\\x87\\x82\\xef\\xbc\\x9f\')\\t\\n"))'
p53
sS'__subclasshook__'
p54
S'<built-in method __subclasshook__ of type object>'
p55
sS'offset'
p56
S'7'
sS'__unicode__'
p57
S'<built-in method __unicode__ of exceptions.IndentationError object>'
p58
sS'__delattr__'
p59
S"<method-wrapper '__delattr__' of exceptions.IndentationError object>"
p60
sS'__repr__'
p61
S"<method-wrapper '__repr__' of exceptions.IndentationError object>"
p62
sS'__hash__'
p63
S"<method-wrapper '__hash__' of exceptions.IndentationError object>"
p64
ssS'evalue'
p65
S'expected an indented block (controllers/sign.py, line 10)'
p66
sS'request'
p67
cgluon.html
XML_unpickle
p68
(S's\x9dY\x00\x00<div><table><tr><td style="font-weight:bold;vertical-align:top;">ajax</td><td style="vertical-align:top;">:</td><td><div>False</div></td></tr><tr><td style="font-weight:bold;vertical-align:top;">application</td><td style="vertical-align:top;">:</td><td><div>ss</div></td></tr><tr><td style="font-weight:bold;vertical-align:top;">args</td><td style="vertical-align:top;">:</td><td><div><table></table></div></td></tr><tr><td style="font-weight:bold;vertical-align:top;">cid</td><td style="vertical-align:top;">:</td><td><div>None</div></td></tr><tr><td style="font-weight:bold;vertical-align:top;">client</td><td style="vertical-align:top;">:</td><td><div>127.0.0.1</div></td></tr><tr><td style="font-weight:bold;vertical-align:top;">controller</td><td style="vertical-align:top;">:</td><td><div>sign</div></td></tr><tr><td style="font-weight:bold;vertical-align:top;">cookies</td><td style="vertical-align:top;">:</td><td><div><table><tr><td style="font-weight:bold;vertical-align:top;">session_id_admin</td><td style="vertical-align:top;">:</td><td><div>127.0.0.1-064d0912-7eef-4e6a-b78f-ddbefa290bbc<table><tr><td style="font-weight:bold;vertical-align:top;">comment</td><td style="vertical-align:top;">:</td><td><div></div></td></tr><tr><td style="font-weight:bold;vertical-align:top;">domain</td><td style="vertical-align:top;">:</td><td><div></div></td></tr><tr><td style="font-weight:bold;vertical-align:top;">expires</td><td style="vertical-align:top;">:</td><td><div></div></td></tr><tr><td style="font-weight:bold;vertical-align:top;">httponly</td><td style="vertical-align:top;">:</td><td><div></div></td></tr><tr><td style="font-weight:bold;vertical-align:top;">max-age</td><td style="vertical-align:top;">:</td><td><div></div></td></tr><tr><td style="font-weight:bold;vertical-align:top;">path</td><td style="vertical-align:top;">:</td><td><div></div></td></tr><tr><td style="font-weight:bold;vertical-align:top;">secure</td><td style="vertical-align:top;">:</td><td><div></div></td></tr><tr><td style="font-weight:bold;vertical-align:top;">version</td><td style="vertical-align:top;">:</td><td><div></div></td></tr></table></div></td></tr><tr><td style="font-weight:bold;vertical-align:top;">session_id_ss</td><td style="vertical-align:top;">:</td><td><div>127.0.0.1-ba8391bd-aac7-4d4f-8fed-5aea31dc09d0<table><tr><td style="font-weight:bold;vertical-align:top;">comment</td><td style="vertical-align:top;">:</td><td><div></div></td></tr><tr><td style="font-weight:bold;vertical-align:top;">domain</td><td style="vertical-align:top;">:</td><td><div></div></td></tr><tr><td style="font-weight:bold;vertical-align:top;">expires</td><td style="vertical-align:top;">:</td><td><div></div></td></tr><tr><td style="font-weight:bold;vertical-align:top;">httponly</td><td style="vertical-align:top;">:</td><td><div></div></td></tr><tr><td style="font-weight:bold;vertical-align:top;">max-age</td><td style="vertical-align:top;">:</td><td><div></div></td></tr><tr><td style="font-weight:bold;vertical-align:top;">path</td><td style="vertical-align:top;">:</td><td><div></div></td></tr><tr><td style="font-weight:bold;vertical-align:top;">secure</td><td style="vertical-align:top;">:</td><td><div></div></td></tr><tr><td style="font-weight:bold;vertical-align:top;">version</td><td style="vertical-align:top;">:</td><td><div></div></td></tr></table></div></td></tr><tr><td style="font-weight:bold;vertical-align:top;">session_id_test</td><td style="vertical-align:top;">:</td><td><div>127.0.0.1-08bcc6e1-9961-43ce-8f0f-3dff2e3cb5e3<table><tr><td style="font-weight:bold;vertical-align:top;">comment</td><td style="vertical-align:top;">:</td><td><div></div></td></tr><tr><td style="font-weight:bold;vertical-align:top;">domain</td><td style="vertical-align:top;">:</td><td><div></div></td></tr><tr><td style="font-weight:bold;vertical-align:top;">expires</td><td style="vertical-align:top;">:</td><td><div></div></td></tr><tr><td style="font-weight:bold;vertical-align:top;">httponly</td><td style="vertical-align:top;">:</td><td><div></div></td></tr><tr><td style="font-weight:bold;vertical-align:top;">max-age</td><td style="vertical-align:top;">:</td><td><div></div></td></tr><tr><td style="font-weight:bold;vertical-align:top;">path</td><td style="vertical-align:top;">:</td><td><div></div></td></tr><tr><td style="font-weight:bold;vertical-align:top;">secure</td><td style="vertical-align:top;">:</td><td><div></div></td></tr><tr><td style="font-weight:bold;vertical-align:top;">version</td><td style="vertical-align:top;">:</td><td><div></div></td></tr></table></div></td></tr><tr><td style="font-weight:bold;vertical-align:top;">session_id_welcome</td><td style="vertical-align:top;">:</td><td><div>127.0.0.1-e38e84f3-da89-4cdb-af1e-3079796dfa86<table><tr><td style="font-weight:bold;vertical-align:top;">comment</td><td style="vertical-align:top;">:</td><td><div></div></td></tr><tr><td style="font-weight:bold;vertical-align:top;">domain</td><td style="vertical-align:top;">:</td><td><div></div></td></tr><tr><td style="font-weight:bold;vertical-align:top;">expires</td><td style="vertical-align:top;">:</td><td><div></div></td></tr><tr><td style="font-weight:bold;vertical-align:top;">httponly</td><td style="vertical-align:top;">:</td><td><div></div></td></tr><tr><td style="font-weight:bold;vertical-align:top;">max-age</td><td style="vertical-align:top;">:</td><td><div></div></td></tr><tr><td style="font-weight:bold;vertical-align:top;">path</td><td style="vertical-align:top;">:</td><td><div></div></td></tr><tr><td style="font-weight:bold;vertical-align:top;">secure</td><td style="vertical-align:top;">:</td><td><div></div></td></tr><tr><td style="font-weight:bold;vertical-align:top;">version</td><td style="vertical-align:top;">:</td><td><div></div></td></tr></table></div></td></tr></table></div></td></tr><tr><td style="font-weight:bold;vertical-align:top;">env</td><td style="vertical-align:top;">:</td><td><div><table><tr><td style="font-weight:bold;vertical-align:top;">CONTENT_LENGTH</td><td style="vertical-align:top;">:</td><td><div>684</div></td></tr><tr><td style="font-weight:bold;vertical-align:top;">CONTENT_TYPE</td><td style="vertical-align:top;">:</td><td><div>multipart/form-data; boundary=----WebKitFormBoundaryHH0mTsxAoVTo9KU6</div></td></tr><tr><td style="font-weight:bold;vertical-align:top;">GATEWAY_INTERFACE</td><td style="vertical-align:top;">:</td><td><div>CGI/1.1</div></td></tr><tr><td style="font-weight:bold;vertical-align:top;">HTTP_ACCEPT</td><td style="vertical-align:top;">:</td><td><div>text/html,application/xhtml+xml,application/xml;q=0.9,image/webp,*/*;q=0.8</div></td></tr><tr><td style="font-weight:bold;vertical-align:top;">HTTP_ACCEPT_ENCODING</td><td style="vertical-align:top;">:</td><td><div>gzip, deflate</div></td></tr><tr><td style="font-weight:bold;vertical-align:top;">HTTP_ACCEPT_LANGUAGE</td><td style="vertical-align:top;">:</td><td><div>zh-CN,zh;q=0.8</div></td></tr><tr><td style="font-weight:bold;vertical-align:top;">HTTP_CACHE_CONTROL</td><td style="vertical-align:top;">:</td><td><div>max-age=0</div></td></tr><tr><td style="font-weight:bold;vertical-align:top;">HTTP_CONNECTION</td><td style="vertical-align:top;">:</td><td><div>keep-alive</div></td></tr><tr><td style="font-weight:bold;vertical-align:top;">HTTP_COOKIE</td><td style="vertical-align:top;">:</td><td><div>session_id_test=127.0.0.1-08bcc6e1-9961-43ce-8f0f-3dff2e3cb5e3; session_id_welcome=127.0.0.1-e38e84f3-da89-4cdb-af1e-3079796dfa86; session_id_admin=127.0.0.1-064d0912-7eef-4e6a-b78f-ddbefa290bbc; session_id_ss=127.0.0.1-ba8391bd-aac7-4d4f-8fed-5aea31dc09d0</div></td></tr><tr><td style="font-weight:bold;vertical-align:top;">HTTP_HOST</td><td style="vertical-align:top;">:</td><td><div>127.0.0.1:8000</div></td></tr><tr><td style="font-weight:bold;vertical-align:top;">HTTP_ORIGIN</td><td style="vertical-align:top;">:</td><td><div>http://127.0.0.1:8000</div></td></tr><tr><td style="font-weight:bold;vertical-align:top;">HTTP_REFERER</td><td style="vertical-align:top;">:</td><td><div>http://127.0.0.1:8000/ss/sign/sign.html</div></td></tr><tr><td style="font-weight:bold;vertical-align:top;">HTTP_USER_AGENT</td><td style="vertical-align:top;">:</td><td><div>Mozilla/5.0 (Windows NT 6.1; WOW64) AppleWebKit/537.36 (KHTML, like Gecko) Chrome/39.0.2171.71 Safari/537.36</div></td></tr><tr><td style="font-weight:bold;vertical-align:top;">PATH_INFO</td><td style="vertical-align:top;">:</td><td><div>/ss/sign/sign.html</div></td></tr><tr><td style="font-weight:bold;vertical-align:top;">QUERY_STRING</td><td style="vertical-align:top;">:</td><td><div></div></td></tr><tr><td style="font-weight:bold;vertical-align:top;">REMOTE_ADDR</td><td style="vertical-align:top;">:</td><td><div>127.0.0.1</div></td></tr><tr><td style="font-weight:bold;vertical-align:top;">REMOTE_PORT</td><td style="vertical-align:top;">:</td><td><div>64861</div></td></tr><tr><td style="font-weight:bold;vertical-align:top;">REQUEST_METHOD</td><td style="vertical-align:top;">:</td><td><div>POST</div></td></tr><tr><td style="font-weight:bold;vertical-align:top;">SCRIPT_NAME</td><td style="vertical-align:top;">:</td><td><div></div></td></tr><tr><td style="font-weight:bold;vertical-align:top;">SERVER_NAME</td><td style="vertical-align:top;">:</td><td><div>PC-20130402BLHT</div></td></tr><tr><td style="font-weight:bold;vertical-align:top;">SERVER_PORT</td><td style="vertical-align:top;">:</td><td><div>8000</div></td></tr><tr><td style="font-weight:bold;vertical-align:top;">SERVER_PROTOCOL</td><td style="vertical-align:top;">:</td><td><div>HTTP/1.1</div></td></tr><tr><td style="font-weight:bold;vertical-align:top;">SERVER_SOFTWARE</td><td style="vertical-align:top;">:</td><td><div>gevent/1.0 Python/2.7</div></td></tr><tr><td style="font-weight:bold;vertical-align:top;">app_folders</td><td style="vertical-align:top;">:</td><td><div>set([&#x27;F:\\\\Python27\\\\Tools\\\\web2py\\\\applications\\\\ss\\\\&#x27;, &#x27;F:\\\\Python27\\\\Tools\\\\web2py\\\\applications\\\\test\\\\&#x27;, &#x27;F:\\\\Python27\\\\Tools\\\\web2py\\\\applications\\\\welcome\\\\&#x27;, &#x27;F:\\\\Python27\\\\Tools\\\\web2py\\\\applications\\\\admin\\\\&#x27;])</div></td></tr><tr><td style="font-weight:bold;vertical-align:top;">applications_parent</td><td style="vertical-align:top;">:</td><td><div>F:\\Python27\\Tools\\web2py</div></td></tr><tr><td style="font-weight:bold;vertical-align:top;">content_length</td><td style="vertical-align:top;">:</td><td><div>684</div></td></tr><tr><td style="font-weight:bold;vertical-align:top;">content_type</td><td style="vertical-align:top;">:</td><td><div>multipart/form-data; boundary=----WebKitFormBoundaryHH0mTsxAoVTo9KU6</div></td></tr><tr><td style="font-weight:bold;vertical-align:top;">db_sessions</td><td style="vertical-align:top;">:</td><td><div>set([])</div></td></tr><tr><td style="font-weight:bold;vertical-align:top;">debugging</td><td style="vertical-align:top;">:</td><td><div>False</div></td></tr><tr><td style="font-weight:bold;vertical-align:top;">gateway_interface</td><td style="vertical-align:top;">:</td><td><div>CGI/1.1</div></td></tr><tr><td style="font-weight:bold;vertical-align:top;">gluon_parent</td><td style="vertical-align:top;">:</td><td><div>F:\\Python27\\Tools\\web2py</div></td></tr><tr><td style="font-weight:bold;vertical-align:top;">http_accept</td><td style="vertical-align:top;">:</td><td><div>text/html,application/xhtml+xml,application/xml;q=0.9,image/webp,*/*;q=0.8</div></td></tr><tr><td style="font-weight:bold;vertical-align:top;">http_accept_encoding</td><td style="vertical-align:top;">:</td><td><div>gzip, deflate</div></td></tr><tr><td style="font-weight:bold;vertical-align:top;">http_accept_language</td><td style="vertical-align:top;">:</td><td><div>zh-CN,zh;q=0.8</div></td></tr><tr><td style="font-weight:bold;vertical-align:top;">http_cache_control</td><td style="vertical-align:top;">:</td><td><div>max-age=0</div></td></tr><tr><td style="font-weight:bold;vertical-align:top;">http_connection</td><td style="vertical-align:top;">:</td><td><div>keep-alive</div></td></tr><tr><td style="font-weight:bold;vertical-align:top;">http_cookie</td><td style="vertical-align:top;">:</td><td><div>session_id_test=127.0.0.1-08bcc6e1-9961-43ce-8f0f-3dff2e3cb5e3; session_id_welcome=127.0.0.1-e38e84f3-da89-4cdb-af1e-3079796dfa86; session_id_admin=127.0.0.1-064d0912-7eef-4e6a-b78f-ddbefa290bbc; session_id_ss=127.0.0.1-ba8391bd-aac7-4d4f-8fed-5aea31dc09d0</div></td></tr><tr><td style="font-weight:bold;vertical-align:top;">http_host</td><td style="vertical-align:top;">:</td><td><div>127.0.0.1:8000</div></td></tr><tr><td style="font-weight:bold;vertical-align:top;">http_origin</td><td style="vertical-align:top;">:</td><td><div>http://127.0.0.1:8000</div></td></tr><tr><td style="font-weight:bold;vertical-align:top;">http_referer</td><td style="vertical-align:top;">:</td><td><div>http://127.0.0.1:8000/ss/sign/sign.html</div></td></tr><tr><td style="font-weight:bold;vertical-align:top;">http_user_agent</td><td style="vertical-align:top;">:</td><td><div>Mozilla/5.0 (Windows NT 6.1; WOW64) AppleWebKit/537.36 (KHTML, like Gecko) Chrome/39.0.2171.71 Safari/537.36</div></td></tr><tr><td style="font-weight:bold;vertical-align:top;">is_jython</td><td style="vertical-align:top;">:</td><td><div>False</div></td></tr><tr><td style="font-weight:bold;vertical-align:top;">is_pypy</td><td style="vertical-align:top;">:</td><td><div>False</div></td></tr><tr><td style="font-weight:bold;vertical-align:top;">is_source</td><td style="vertical-align:top;">:</td><td><div>False</div></td></tr><tr><td style="font-weight:bold;vertical-align:top;">local_hosts</td><td style="vertical-align:top;">:</td><td><div><table><tr><td><div>192.168.126.1</div></td></tr><tr><td><div>fe80::b1fe:ca:4fc6:787%21</div></td></tr><tr><td><div>::ffff:127.0.0.1</div></td></tr><tr><td><div>::1</div></td></tr><tr><td><div>PC-20130402BLHT</div></td></tr><tr><td><div>fe80::3542:84c0:2bd4:8449%22</div></td></tr><tr><td><div>192.168.17.1</div></td></tr><tr><td><div>192.168.0.102</div></td></tr><tr><td><div>fe80::e9cd:a2c1:c4ec:d317%12</div></td></tr><tr><td><div>127.0.0.1</div></td></tr></table></div></td></tr><tr><td style="font-weight:bold;vertical-align:top;">path_info</td><td style="vertical-align:top;">:</td><td><div>/ss/sign/sign.html</div></td></tr><tr><td style="font-weight:bold;vertical-align:top;">query_string</td><td style="vertical-align:top;">:</td><td><div></div></td></tr><tr><td style="font-weight:bold;vertical-align:top;">remote_addr</td><td style="vertical-align:top;">:</td><td><div>127.0.0.1</div></td></tr><tr><td style="font-weight:bold;vertical-align:top;">remote_port</td><td style="vertical-align:top;">:</td><td><div>64861</div></td></tr><tr><td style="font-weight:bold;vertical-align:top;">request_method</td><td style="vertical-align:top;">:</td><td><div>POST</div></td></tr><tr><td style="font-weight:bold;vertical-align:top;">request_uri</td><td style="vertical-align:top;">:</td><td><div>/ss/sign/sign.html</div></td></tr><tr><td style="font-weight:bold;vertical-align:top;">script_name</td><td style="vertical-align:top;">:</td><td><div></div></td></tr><tr><td style="font-weight:bold;vertical-align:top;">server_name</td><td style="vertical-align:top;">:</td><td><div>PC-20130402BLHT</div></td></tr><tr><td style="font-weight:bold;vertical-align:top;">server_port</td><td style="vertical-align:top;">:</td><td><div>8000</div></td></tr><tr><td style="font-weight:bold;vertical-align:top;">server_protocol</td><td style="vertical-align:top;">:</td><td><div>HTTP/1.1</div></td></tr><tr><td style="font-weight:bold;vertical-align:top;">server_software</td><td style="vertical-align:top;">:</td><td><div>gevent/1.0 Python/2.7</div></td></tr><tr><td style="font-weight:bold;vertical-align:top;">web2py_path</td><td style="vertical-align:top;">:</td><td><div>F:\\Python27\\Tools\\web2py</div></td></tr><tr><td style="font-weight:bold;vertical-align:top;">web2py_version</td><td style="vertical-align:top;">:</td><td><div>2.9.11-stable+timestamp.2014.09.15.23.35.11</div></td></tr><tr><td style="font-weight:bold;vertical-align:top;">wsgi.errors</td><td style="vertical-align:top;">:</td><td><div>&lt;open file &#x27;&lt;stderr&gt;&#x27;, mode &#x27;w&#x27; at 0x004560D0&gt;</div></td></tr><tr><td style="font-weight:bold;vertical-align:top;">wsgi.input</td><td style="vertical-align:top;">:</td><td><div>&lt;gevent.pywsgi.Input object at 0x04D52190&gt;</div></td></tr><tr><td style="font-weight:bold;vertical-align:top;">wsgi.multiprocess</td><td style="vertical-align:top;">:</td><td><div>False</div></td></tr><tr><td style="font-weight:bold;vertical-align:top;">wsgi.multithread</td><td style="vertical-align:top;">:</td><td><div>False</div></td></tr><tr><td style="font-weight:bold;vertical-align:top;">wsgi.run_once</td><td style="vertical-align:top;">:</td><td><div>False</div></td></tr><tr><td style="font-weight:bold;vertical-align:top;">wsgi.url_scheme</td><td style="vertical-align:top;">:</td><td><div>http</div></td></tr><tr><td style="font-weight:bold;vertical-align:top;">wsgi.version</td><td style="vertical-align:top;">:</td><td><div><table><tr><td><div>1</div></td></tr><tr><td><div>0</div></td></tr></table></div></td></tr><tr><td style="font-weight:bold;vertical-align:top;">wsgi_errors</td><td style="vertical-align:top;">:</td><td><div>&lt;open file &#x27;&lt;stderr&gt;&#x27;, mode &#x27;w&#x27; at 0x004560D0&gt;</div></td></tr><tr><td style="font-weight:bold;vertical-align:top;">wsgi_input</td><td style="vertical-align:top;">:</td><td><div>&lt;gevent.pywsgi.Input object at 0x04D52190&gt;</div></td></tr><tr><td style="font-weight:bold;vertical-align:top;">wsgi_multiprocess</td><td style="vertical-align:top;">:</td><td><div>False</div></td></tr><tr><td style="font-weight:bold;vertical-align:top;">wsgi_multithread</td><td style="vertical-align:top;">:</td><td><div>False</div></td></tr><tr><td style="font-weight:bold;vertical-align:top;">wsgi_run_once</td><td style="vertical-align:top;">:</td><td><div>False</div></td></tr><tr><td style="font-weight:bold;vertical-align:top;">wsgi_url_scheme</td><td style="vertical-align:top;">:</td><td><div>http</div></td></tr><tr><td style="font-weight:bold;vertical-align:top;">wsgi_version</td><td style="vertical-align:top;">:</td><td><div><table><tr><td><div>1</div></td></tr><tr><td><div>0</div></td></tr></table></div></td></tr></table></div></td></tr><tr><td style="font-weight:bold;vertical-align:top;">extension</td><td style="vertical-align:top;">:</td><td><div>html</div></td></tr><tr><td style="font-weight:bold;vertical-align:top;">folder</td><td style="vertical-align:top;">:</td><td><div>F:\\Python27\\Tools\\web2py\\applications\\ss\\</div></td></tr><tr><td style="font-weight:bold;vertical-align:top;">function</td><td style="vertical-align:top;">:</td><td><div>sign</div></td></tr><tr><td style="font-weight:bold;vertical-align:top;">global_settings</td><td style="vertical-align:top;">:</td><td><div><table><tr><td style="font-weight:bold;vertical-align:top;">app_folders</td><td style="vertical-align:top;">:</td><td><div>set([&#x27;F:\\\\Python27\\\\Tools\\\\web2py\\\\applications\\\\ss\\\\&#x27;, &#x27;F:\\\\Python27\\\\Tools\\\\web2py\\\\applications\\\\test\\\\&#x27;, &#x27;F:\\\\Python27\\\\Tools\\\\web2py\\\\applications\\\\welcome\\\\&#x27;, &#x27;F:\\\\Python27\\\\Tools\\\\web2py\\\\applications\\\\admin\\\\&#x27;])</div></td></tr><tr><td style="font-weight:bold;vertical-align:top;">applications_parent</td><td style="vertical-align:top;">:</td><td><div>F:\\Python27\\Tools\\web2py</div></td></tr><tr><td style="font-weight:bold;vertical-align:top;">db_sessions</td><td style="vertical-align:top;">:</td><td><div>set([])</div></td></tr><tr><td style="font-weight:bold;vertical-align:top;">debugging</td><td style="vertical-align:top;">:</td><td><div>False</div></td></tr><tr><td style="font-weight:bold;vertical-align:top;">gluon_parent</td><td style="vertical-align:top;">:</td><td><div>F:\\Python27\\Tools\\web2py</div></td></tr><tr><td style="font-weight:bold;vertical-align:top;">is_jython</td><td style="vertical-align:top;">:</td><td><div>False</div></td></tr><tr><td style="font-weight:bold;vertical-align:top;">is_pypy</td><td style="vertical-align:top;">:</td><td><div>False</div></td></tr><tr><td style="font-weight:bold;vertical-align:top;">is_source</td><td style="vertical-align:top;">:</td><td><div>False</div></td></tr><tr><td style="font-weight:bold;vertical-align:top;">local_hosts</td><td style="vertical-align:top;">:</td><td><div><table><tr><td><div>192.168.126.1</div></td></tr><tr><td><div>fe80::b1fe:ca:4fc6:787%21</div></td></tr><tr><td><div>::ffff:127.0.0.1</div></td></tr><tr><td><div>::1</div></td></tr><tr><td><div>PC-20130402BLHT</div></td></tr><tr><td><div>fe80::3542:84c0:2bd4:8449%22</div></td></tr><tr><td><div>192.168.17.1</div></td></tr><tr><td><div>192.168.0.102</div></td></tr><tr><td><div>fe80::e9cd:a2c1:c4ec:d317%12</div></td></tr><tr><td><div>127.0.0.1</div></td></tr></table></div></td></tr><tr><td style="font-weight:bold;vertical-align:top;">web2py_version</td><td style="vertical-align:top;">:</td><td><div>2.9.11-stable+timestamp.2014.09.15.23.35.11</div></td></tr></table></div></td></tr><tr><td style="font-weight:bold;vertical-align:top;">is_https</td><td style="vertical-align:top;">:</td><td><div>False</div></td></tr><tr><td style="font-weight:bold;vertical-align:top;">is_local</td><td style="vertical-align:top;">:</td><td><div>True</div></td></tr><tr><td style="font-weight:bold;vertical-align:top;">is_restful</td><td style="vertical-align:top;">:</td><td><div>False</div></td></tr><tr><td style="font-weight:bold;vertical-align:top;">is_sheduler</td><td style="vertical-align:top;">:</td><td><div>None</div></td></tr><tr><td style="font-weight:bold;vertical-align:top;">is_shell</td><td style="vertical-align:top;">:</td><td><div>None</div></td></tr><tr><td style="font-weight:bold;vertical-align:top;">now</td><td style="vertical-align:top;">:</td><td><div>datetime.datetime(2014, 12, 7, 17, 52, 42, 715000)</div></td></tr><tr><td style="font-weight:bold;vertical-align:top;">raw_args</td><td style="vertical-align:top;">:</td><td><div></div></td></tr><tr><td style="font-weight:bold;vertical-align:top;">raw_extension</td><td style="vertical-align:top;">:</td><td><div>html</div></td></tr><tr><td style="font-weight:bold;vertical-align:top;">url</td><td style="vertical-align:top;">:</td><td><div>/ss/sign/sign.html</div></td></tr><tr><td style="font-weight:bold;vertical-align:top;">utcnow</td><td style="vertical-align:top;">:</td><td><div>datetime.datetime(2014, 12, 7, 9, 52, 42, 715000)</div></td></tr><tr><td style="font-weight:bold;vertical-align:top;">uuid</td><td style="vertical-align:top;">:</td><td><div>ss/127.0.0.1.2014-12-07.17-52-42.8a7f15bf-112d-471b-a5ce-736ea614a614</div></td></tr><tr><td style="font-weight:bold;vertical-align:top;">wsgi</td><td style="vertical-align:top;">:</td><td><div>&lt;gluon.main.LazyWSGI object at 0x04366A90&gt;</div></td></tr></table></div>'
tRp69
sS'frames'
p70
(lp71
(dp72
S'file'
p73
S'F:\\Python27\\Tools\\web2py\\gluon\\restricted.py'
p74
sS'dump'
p75
(dp76
sS'lnum'
p77
I223
sS'lines'
p78
(dp79
sS'call'
p80
S"(code='# -*- coding: utf-8 -*-\\n# try something like\\ndef...t_sign():\\n\\nresponse._vars=response._caller(sign)\\n', environment={'A': <class 'gluon.html.A'>, 'ANY_OF': <class 'gluon.validators.ANY_OF'>, 'ASSIGNJS': <function ASSIGNJS>, 'Auth': <class 'gluon.tools.Auth'>, 'B': <class 'gluon.html.B'>, 'BEAUTIFY': <class 'gluon.html.BEAUTIFY'>, 'BODY': <class 'gluon.html.BODY'>, 'BR': <class 'gluon.html.BR'>, 'BUTTON': <class 'gluon.html.BUTTON'>, 'CAT': <class 'gluon.html.CAT'>, ...}, layer=r'F:\\Python27\\Tools\\web2py\\applications\\ss\\controllers/sign.py')"
p81
sS'func'
p82
S'restricted'
p83
sa(dp84
g73
S'F:\\Python27\\Tools\\web2py\\gluon\\restricted.py'
p85
sg75
(dp86
sg77
I206
sg78
(dp87
sg80
S"(code='# -*- coding: utf-8 -*-\\n# try something like\\ndef...t_sign():\\n\\nresponse._vars=response._caller(sign)\\n', layer=r'F:\\Python27\\Tools\\web2py\\applications\\ss\\controllers/sign.py')"
p88
sg82
S'compile2'
p89
sasS'pyver'
p90
S'Python 2.7.6: F:\\Python27\\Tools\\web2py\\web2py_on_gevent.exe (prefix: F:\\Python27)'
p91
sS'session'
p92
g68
(S's\x01\x05\x00\x00<div><table><tr><td style="font-weight:bold;vertical-align:top;">last_orderby</td><td style="vertical-align:top;">:</td><td><div>None</div></td></tr><tr><td style="font-weight:bold;vertical-align:top;">last_query</td><td style="vertical-align:top;">:</td><td><div>db.signin.id&gt;0</div></td></tr><tr><td style="font-weight:bold;vertical-align:top;">signin</td><td style="vertical-align:top;">:</td><td><div><table><tr><td style="font-weight:bold;vertical-align:top;">\xe5\x88\x98\xe6\x96\x87\xe6\x98\xad</td><td style="vertical-align:top;">:</td><td><div>\xe5\xb7\xb2\xe5\xae\x8c\xe6\x88\x90</div></td></tr><tr><td style="font-weight:bold;vertical-align:top;">\xe5\x90\xb4\xe6\x97\xad</td><td style="vertical-align:top;">:</td><td><div>\xe5\xb7\xb2\xe5\xae\x8c\xe6\x88\x90</div></td></tr><tr><td style="font-weight:bold;vertical-align:top;">\xe5\xa7\x9a\xe6\xb6\xa6\xe7\xa8\x8b</td><td style="vertical-align:top;">:</td><td><div>\xe5\xb7\xb2\xe5\xae\x8c\xe6\x88\x90</div></td></tr><tr><td style="font-weight:bold;vertical-align:top;">\xe7\xbd\x97\xe8\xb5\x9b</td><td style="vertical-align:top;">:</td><td><div>\xe5\xb7\xb2\xe5\xae\x8c\xe6\x88\x90</div></td></tr><tr><td style="font-weight:bold;vertical-align:top;">\xe8\x96\x9b\xe6\x89\xbf\xe6\x80\xa1</td><td style="vertical-align:top;">:</td><td><div>\xe5\xb7\xb2\xe5\xae\x8c\xe6\x88\x90</div></td></tr><tr><td style="font-weight:bold;vertical-align:top;">\xe9\xbe\x99\xe5\x90\x89\xe6\xba\x90</td><td style="vertical-align:top;">:</td><td><div>\xe5\xb7\xb2\xe5\xae\x8c\xe6\x88\x90</div></td></tr></table></div></td></tr></table></div>'
tRp93
sS'etype'
p94
S"<type 'exceptions.IndentationError'>"
p95
sS'date'
p96
S'Sun Dec 07 17:52:43 2014'
p97
sS'response'
p98
g68
(S's/2\x00\x00<div><table><tr><td style="font-weight:bold;vertical-align:top;">body</td><td style="vertical-align:top;">:</td><td><div>&lt;cStringIO.StringO object at 0x04824380&gt;</div></td></tr><tr><td style="font-weight:bold;vertical-align:top;">cookies</td><td style="vertical-align:top;">:</td><td><div><table><tr><td style="font-weight:bold;vertical-align:top;">session_id_ss</td><td style="vertical-align:top;">:</td><td><div>127.0.0.1-ba8391bd-aac7-4d4f-8fed-5aea31dc09d0<table><tr><td style="font-weight:bold;vertical-align:top;">comment</td><td style="vertical-align:top;">:</td><td><div></div></td></tr><tr><td style="font-weight:bold;vertical-align:top;">domain</td><td style="vertical-align:top;">:</td><td><div></div></td></tr><tr><td style="font-weight:bold;vertical-align:top;">expires</td><td style="vertical-align:top;">:</td><td><div></div></td></tr><tr><td style="font-weight:bold;vertical-align:top;">httponly</td><td style="vertical-align:top;">:</td><td><div></div></td></tr><tr><td style="font-weight:bold;vertical-align:top;">max-age</td><td style="vertical-align:top;">:</td><td><div></div></td></tr><tr><td style="font-weight:bold;vertical-align:top;">path</td><td style="vertical-align:top;">:</td><td><div>/</div></td></tr><tr><td style="font-weight:bold;vertical-align:top;">secure</td><td style="vertical-align:top;">:</td><td><div></div></td></tr><tr><td style="font-weight:bold;vertical-align:top;">version</td><td style="vertical-align:top;">:</td><td><div></div></td></tr></table></div></td></tr></table></div></td></tr><tr><td style="font-weight:bold;vertical-align:top;">delimiters</td><td style="vertical-align:top;">:</td><td><div><table><tr><td><div>{{</div></td></tr><tr><td><div>}}</div></td></tr></table></div></td></tr><tr><td style="font-weight:bold;vertical-align:top;">files</td><td style="vertical-align:top;">:</td><td><div><table></table></div></td></tr><tr><td style="font-weight:bold;vertical-align:top;">flash</td><td style="vertical-align:top;">:</td><td><div></div></td></tr><tr><td style="font-weight:bold;vertical-align:top;">form_label_separator</td><td style="vertical-align:top;">:</td><td><div>: </div></td></tr><tr><td style="font-weight:bold;vertical-align:top;">formstyle</td><td style="vertical-align:top;">:</td><td><div>table3cols</div></td></tr><tr><td style="font-weight:bold;vertical-align:top;">generic_patterns</td><td style="vertical-align:top;">:</td><td><div><table><tr><td><div>*</div></td></tr></table></div></td></tr><tr><td style="font-weight:bold;vertical-align:top;">google_analytics_id</td><td style="vertical-align:top;">:</td><td><div>None</div></td></tr><tr><td style="font-weight:bold;vertical-align:top;">headers</td><td style="vertical-align:top;">:</td><td><div><table><tr><td style="font-weight:bold;vertical-align:top;">X-Powered-By</td><td style="vertical-align:top;">:</td><td><div>web2py</div></td></tr></table></div></td></tr><tr><td style="font-weight:bold;vertical-align:top;">logo</td><td style="vertical-align:top;">:</td><td><div><a class="brand" href="http://www.web2py.com/"><b>web<span>2</span>py</b>&trade;&nbsp;</a></div></td></tr><tr><td style="font-weight:bold;vertical-align:top;">menu</td><td style="vertical-align:top;">:</td><td><div><table><tr><td><div><table><tr><td><div>Home</div></td></tr><tr><td><div>False</div></td></tr><tr><td><div>/ss/default/index</div></td></tr><tr><td><div><table></table></div></td></tr></table></div></td></tr><tr><td><div><table><tr><td><div><span class="highlighted">web2py</span></div></td></tr><tr><td><div>False</div></td></tr><tr><td><div>http://web2py.com</div></td></tr><tr><td><div><table><tr><td><div><table><tr><td><div>My Sites</div></td></tr><tr><td><div>False</div></td></tr><tr><td><div>/admin/default/site</div></td></tr></table></div></td></tr><tr><td><div><table><tr><td><div>\xe8\xaf\xa5\xe5\xba\x94\xe7\x94\xa8</div></td></tr><tr><td><div>False</div></td></tr><tr><td><div>/admin/default/design/ss</div></td></tr><tr><td><div>[(&lt;lazyT &#x27;Controller&#x27;&gt;, False, &#x27;/admin/default/edit/ss/controllers/sign.py&#x27;), (&lt;lazyT &#x27;View&#x27;&gt;, False, &#x27;/admin/default/edit/ss/views/sign/sign.html&#x27;), (&lt;lazyT &#x27;Layout&#x27;&gt;, False, &#x27;/admin/default/edit/ss/views/layout.html&#x27;), (&lt;lazyT &#x27;Stylesheet&#x27;&gt;, False, &#x27;/admin/default/edit/ss/static/css/web2py.css&#x27;), (&lt;lazyT &#x27;DB Model&#x27;&gt;, False, &#x27;/admin/default/edit/ss/models/db.py&#x27;), (&lt;lazyT &#x27;Menu Model&#x27;&gt;, False, &#x27;/admin/default/edit/ss/models/menu.py&#x27;), (&lt;lazyT &#x27;Database&#x27;&gt;, False, &#x27;/ss/appadmin/index&#x27;), (&lt;lazyT &#x27;Errors&#x27;&gt;, False, &#x27;/admin/default/errors/ss&#x27;), (&lt;lazyT &#x27;About&#x27;&gt;, False, &#x27;/admin/default/about/ss&#x27;)]</div></td></tr></table></div></td></tr><tr><td><div><table><tr><td><div>web2py.com</div></td></tr><tr><td><div>False</div></td></tr><tr><td><div>http://www.web2py.com</div></td></tr><tr><td><div>[(&lt;lazyT &#x27;Download&#x27;&gt;, False, &#x27;http://www.web2py.com/examples/default/download&#x27;), (&lt;lazyT &#x27;Support&#x27;&gt;, False, &#x27;http://www.web2py.com/examples/default/support&#x27;), (&lt;lazyT &#x27;Demo&#x27;&gt;, False, &#x27;http://web2py.com/demo_admin&#x27;), (&lt;lazyT &#x27;Quick Examples&#x27;&gt;, False, &#x27;http://web2py.com/examples/default/examples&#x27;), (&lt;lazyT &#x27;FAQ&#x27;&gt;, False, &#x27;http://web2py.com/AlterEgo&#x27;), (&lt;lazyT &#x27;Videos&#x27;&gt;, False, &#x27;http://www.web2py.com/examples/default/videos/&#x27;), (&lt;lazyT &#x27;Free Applications&#x27;&gt;, False, &#x27;http://web2py.com/appliances&#x27;), (&lt;lazyT &#x27;Plugins&#x27;&gt;, False, &#x27;http://web2py.com/plugins&#x27;), (&lt;lazyT &#x27;Layouts&#x27;&gt;, False, &#x27;http://web2py.com/layouts&#x27;), (&lt;lazyT &#x27;Recipes&#x27;&gt;, False, &#x27;http://web2pyslices.com/&#x27;), (&lt;lazyT &#x27;Semantic&#x27;&gt;, False, &#x27;http://web2py.com/semantic&#x27;)]</div></td></tr></table></div></td></tr><tr><td><div><table><tr><td><div>Documentation</div></td></tr><tr><td><div>False</div></td></tr><tr><td><div>http://www.web2py.com/book</div></td></tr><tr><td><div>[(&lt;lazyT &#x27;Preface&#x27;&gt;, False, &#x27;http://www.web2py.com/book/default/chapter/00&#x27;), (&lt;lazyT &#x27;Introduction&#x27;&gt;, False, &#x27;http://www.web2py.com/book/default/chapter/01&#x27;), (&lt;lazyT &#x27;Python&#x27;&gt;, False, &#x27;http://www.web2py.com/book/default/chapter/02&#x27;), (&lt;lazyT &#x27;Overview&#x27;&gt;, False, &#x27;http://www.web2py.com/book/default/chapter/03&#x27;), (&lt;lazyT &#x27;The Core&#x27;&gt;, False, &#x27;http://www.web2py.com/book/default/chapter/04&#x27;), (&lt;lazyT &#x27;The Views&#x27;&gt;, False, &#x27;http://www.web2py.com/book/default/chapter/05&#x27;), (&lt;lazyT &#x27;Database&#x27;&gt;, False, &#x27;http://www.web2py.com/book/default/chapter/06&#x27;), (&lt;lazyT &#x27;Forms and Validators&#x27;&gt;, False, &#x27;http://www.web2py.com/book/default/chapter/07&#x27;), (&lt;lazyT &#x27;Email and SMS&#x27;&gt;, False, &#x27;http://www.web2py.com/book/default/chapter/08&#x27;), (&lt;lazyT &#x27;Access Control&#x27;&gt;, False, &#x27;http://www.web2py.com/book/default/chapter/09&#x27;), (&lt;lazyT &#x27;Services&#x27;&gt;, False, &#x27;http://www.web2py.com/book/default/chapter/10&#x27;), (&lt;lazyT &#x27;Ajax Recipes&#x27;&gt;, False, &#x27;http://www.web2py.com/book/default/chapter/11&#x27;), (&lt;lazyT &#x27;Components and Plugins&#x27;&gt;, False, &#x27;http://www.web2py.com/book/default/chapter/12&#x27;), (&lt;lazyT &#x27;Deployment Recipes&#x27;&gt;, False, &#x27;http://www.web2py.com/book/default/chapter/13&#x27;), (&lt;lazyT &#x27;Other Recipes&#x27;&gt;, False, &#x27;http://www.web2py.com/book/default/chapter/14&#x27;), (&lt;lazyT &#x27;Buy this book&#x27;&gt;, False, &#x27;http://stores.lulu.com/web2py&#x27;)]</div></td></tr></table></div></td></tr><tr><td><div><table><tr><td><div>Community</div></td></tr><tr><td><div>False</div></td></tr><tr><td><div>None</div></td></tr><tr><td><div>[(&lt;lazyT &#x27;Groups&#x27;&gt;, False, &#x27;http://www.web2py.com/examples/default/usergroups&#x27;), (&lt;lazyT &#x27;Twitter&#x27;&gt;, False, &#x27;http://twitter.com/web2py&#x27;), (&lt;lazyT &#x27;Live Chat&#x27;&gt;, False, &#x27;http://webchat.freenode.net/?channels=web2py&#x27;)]</div></td></tr></table></div></td></tr><tr><td><div><table><tr><td><div>Plugins</div></td></tr><tr><td><div>False</div></td></tr><tr><td><div>None</div></td></tr><tr><td><div>[(&#x27;plugin_wiki&#x27;, False, &#x27;http://web2py.com/examples/default/download&#x27;), (&lt;lazyT &#x27;Other Plugins&#x27;&gt;, False, &#x27;http://web2py.com/plugins&#x27;), (&lt;lazyT &#x27;Layout Plugins&#x27;&gt;, False, &#x27;http://web2py.com/layouts&#x27;)]</div></td></tr></table></div></td></tr></table></div></td></tr></table></div></td></tr></table></div></td></tr><tr><td style="font-weight:bold;vertical-align:top;">meta</td><td style="vertical-align:top;">:</td><td><div><table><tr><td style="font-weight:bold;vertical-align:top;">author</td><td style="vertical-align:top;">:</td><td><div>Your Name &lt;you@example.com&gt;</div></td></tr><tr><td style="font-weight:bold;vertical-align:top;">generator</td><td style="vertical-align:top;">:</td><td><div>Web2py Web Framework</div></td></tr><tr><td style="font-weight:bold;vertical-align:top;">keywords</td><td style="vertical-align:top;">:</td><td><div>web2py, python, framework</div></td></tr></table></div></td></tr><tr><td style="font-weight:bold;vertical-align:top;">models_to_run</td><td style="vertical-align:top;">:</td><td><div><table><tr><td><div>^\\w+\\.py$</div></td></tr><tr><td><div>^sign/\\w+\\.py$</div></td></tr><tr><td><div>^sign/sign/\\w+\\.py$</div></td></tr></table></div></td></tr><tr><td style="font-weight:bold;vertical-align:top;">postprocessing</td><td style="vertical-align:top;">:</td><td><div><table></table></div></td></tr><tr><td style="font-weight:bold;vertical-align:top;">session_client</td><td style="vertical-align:top;">:</td><td><div>127.0.0.1</div></td></tr><tr><td style="font-weight:bold;vertical-align:top;">session_cookie_compression_level</td><td style="vertical-align:top;">:</td><td><div>None</div></td></tr><tr><td style="font-weight:bold;vertical-align:top;">session_cookie_expires</td><td style="vertical-align:top;">:</td><td><div>None</div></td></tr><tr><td style="font-weight:bold;vertical-align:top;">session_cookie_key</td><td style="vertical-align:top;">:</td><td><div>None</div></td></tr><tr><td style="font-weight:bold;vertical-align:top;">session_data_name</td><td style="vertical-align:top;">:</td><td><div>session_data_ss</div></td></tr><tr><td style="font-weight:bold;vertical-align:top;">session_file</td><td style="vertical-align:top;">:</td><td><div>&lt;open file &#x27;F:\\\\Python27\\\\Tools\\\\web2py\\\\applications\\\\ss\\\\sessions\\\\1a3\\\\17f\\\\127.0.0.1-ba8391bd-aac7-4d4f-8fed-5aea31dc09d0&#x27;, mode &#x27;rb+&#x27; at 0x041580D0&gt;</div></td></tr><tr><td style="font-weight:bold;vertical-align:top;">session_filename</td><td style="vertical-align:top;">:</td><td><div>F:\\Python27\\Tools\\web2py\\applications\\ss\\sessions\\127.0.0.1-ba8391bd-aac7-4d4f-8fed-5aea31dc09d0</div></td></tr><tr><td style="font-weight:bold;vertical-align:top;">session_hash</td><td style="vertical-align:top;">:</td><td><div>7869a8925983980b42121298a35236fb</div></td></tr><tr><td style="font-weight:bold;vertical-align:top;">session_id</td><td style="vertical-align:top;">:</td><td><div>127.0.0.1-ba8391bd-aac7-4d4f-8fed-5aea31dc09d0</div></td></tr><tr><td style="font-weight:bold;vertical-align:top;">session_id_name</td><td style="vertical-align:top;">:</td><td><div>session_id_ss</div></td></tr><tr><td style="font-weight:bold;vertical-align:top;">session_locked</td><td style="vertical-align:top;">:</td><td><div>True</div></td></tr><tr><td style="font-weight:bold;vertical-align:top;">session_masterapp</td><td style="vertical-align:top;">:</td><td><div>ss</div></td></tr><tr><td style="font-weight:bold;vertical-align:top;">session_new</td><td style="vertical-align:top;">:</td><td><div>False</div></td></tr><tr><td style="font-weight:bold;vertical-align:top;">session_storage_type</td><td style="vertical-align:top;">:</td><td><div>file</div></td></tr><tr><td style="font-weight:bold;vertical-align:top;">status</td><td style="vertical-align:top;">:</td><td><div>200</div></td></tr><tr><td style="font-weight:bold;vertical-align:top;">subtitle</td><td style="vertical-align:top;">:</td><td><div></div></td></tr><tr><td style="font-weight:bold;vertical-align:top;">title</td><td style="vertical-align:top;">:</td><td><div>Ss</div></td></tr><tr><td style="font-weight:bold;vertical-align:top;">view</td><td style="vertical-align:top;">:</td><td><div>sign/sign.html</div></td></tr></table></div>'
tRp99
sS'locals'
p100
(dp101
g4
S"r'F:\\Python27\\Tools\\web2py\\applications\\ss\\controllers/sign.py'"
p102
sg6
S"'# -*- coding: utf-8 -*-\\n# try something like\\ndef...t_sign():\\n\\nresponse._vars=response._caller(sign)\\n'"
p103
sssS'traceback'
p104
S'Traceback (most recent call last):\n  File "gluon/restricted.py", line 223, in restricted\n  File "gluon/restricted.py", line 206, in compile2\n  File "F:\\Python27\\Tools\\web2py\\applications\\ss\\controllers/sign.py", line 10\n    return dict(time=today,warning=\'\xe4\xbb\x8a\xe5\xa4\xa9\xe6\x98\xaf\xe5\x91\xa8\xe6\x9c\xab,\xe5\x8a\xb3\xe8\xb5\x84\xe4\xbb\x8a\xe5\xa4\xa9\xe4\xb8\x8d\xe4\xb8\x8a\xe7\x8f\xad,\xe6\x87\x82\xef\xbc\x9f\')\n         ^\nIndentationError: expected an indented block\n'
p105
s.